target datalayout = "e-m:e-p270:32:32-p271:32:32-p272:64:64-i64:64-i128:128-f80:128-n8:16:32:64-S128"
target triple = "x86_64-pc-linux-gnu"

%"class.clang::ento::SubRegion" = type { %"class.clang::ento::MemRegion", ptr }
%"class.clang::ento::MemRegion" = type { ptr, %"class.llvm::FoldingSetBase::Node", i32, [4 x i8], %"class.std::optional" }
%"class.llvm::FoldingSetBase::Node" = type { ptr }
%"class.std::optional" = type { %"struct.std::_Optional_base" }
%"struct.std::_Optional_base" = type { %"struct.std::_Optional_payload" }
%"struct.std::_Optional_payload" = type { %"struct.std::_Optional_payload_base.base", [7 x i8] }
%"struct.std::_Optional_payload_base.base" = type <{ %"union.std::_Optional_payload_base<clang::ento::RegionOffset>::_Storage", i8 }>
%"union.std::_Optional_payload_base<clang::ento::RegionOffset>::_Storage" = type { %"class.clang::ento::RegionOffset" }
%"class.clang::ento::RegionOffset" = type { ptr, i64 }
%"class.clang::NamedDecl" = type { %"class.clang::Decl.base", %"class.clang::DeclarationName" }
%"class.clang::Decl.base" = type <{ ptr, %"class.llvm::PointerIntPair.6", %"class.llvm::PointerUnion", %"class.clang::SourceLocation", i32, i8 }>
%"class.llvm::PointerIntPair.6" = type { %"struct.llvm::detail::PunnedPointer.7" }
%"struct.llvm::detail::PunnedPointer.7" = type { [8 x i8] }
%"class.llvm::PointerUnion" = type { %"class.llvm::pointer_union_detail::PointerUnionMembers" }
%"class.llvm::pointer_union_detail::PointerUnionMembers" = type { %"class.llvm::pointer_union_detail::PointerUnionMembers.8" }
%"class.llvm::pointer_union_detail::PointerUnionMembers.8" = type { %"class.llvm::pointer_union_detail::PointerUnionMembers.9" }
%"class.llvm::pointer_union_detail::PointerUnionMembers.9" = type { %"class.llvm::PointerIntPair.10" }
%"class.llvm::PointerIntPair.10" = type { %"struct.llvm::detail::PunnedPointer.11" }
%"struct.llvm::detail::PunnedPointer.11" = type { [8 x i8] }
%"class.clang::SourceLocation" = type { i32 }
%"class.clang::DeclarationName" = type { i64 }
%"class.llvm::raw_ostream" = type { ptr, i32, ptr, ptr, ptr, i8, i32 }
%"class.llvm::StringRef" = type { ptr, i64 }
%"class.clang::IdentifierInfo" = type { i64, ptr, ptr }
%"class.llvm::StringMapEntry" = type { %"class.llvm::StringMapEntryStorage" }
%"class.llvm::StringMapEntryStorage" = type { %"class.llvm::StringMapEntryBase", ptr }
%"class.llvm::StringMapEntryBase" = type { i64 }

@.str.20 = private unnamed_addr constant [2 x i8] c".\00", align 1
@.str.60 = private unnamed_addr constant [1 x i8] zeroinitializer, align 1

; Function Attrs: mustprogress nounwind uwtable
define linkonce_odr hidden noundef ptr @_ZNK5clang15DeclarationName6getPtrEv(ptr noundef nonnull align 8 dereferenceable(8) %0) #0 comdat align 2 {
  %2 = alloca ptr, align 8
  store ptr %0, ptr %2, align 8
  %3 = load ptr, ptr %2, align 8
  %4 = getelementptr inbounds nuw %"class.clang::DeclarationName", ptr %3, i32 0, i32 0
  %5 = load i64, ptr %4, align 8
  %6 = and i64 %5, -8
  %7 = inttoptr i64 %6 to ptr
  ret ptr %7
}

; Function Attrs: mustprogress nounwind uwtable
define linkonce_odr hidden noundef i32 @_ZNK5clang15DeclarationName17getStoredNameKindEv(ptr noundef nonnull align 8 dereferenceable(8) %0) #0 comdat align 2 {
  %2 = alloca ptr, align 8
  store ptr %0, ptr %2, align 8
  %3 = load ptr, ptr %2, align 8
  %4 = getelementptr inbounds nuw %"class.clang::DeclarationName", ptr %3, i32 0, i32 0
  %5 = load i64, ptr %4, align 8
  %6 = and i64 %5, 7
  %7 = trunc i64 %6 to i32
  ret i32 %7
}

; Function Attrs: mustprogress nounwind uwtable
define linkonce_odr hidden noundef i64 @_ZNK4llvm18StringMapEntryBase12getKeyLengthEv(ptr noundef nonnull align 8 dereferenceable(8) %0) #0 comdat align 2 {
  %2 = alloca ptr, align 8
  store ptr %0, ptr %2, align 8
  %3 = load ptr, ptr %2, align 8
  %4 = getelementptr inbounds nuw %"class.llvm::StringMapEntryBase", ptr %3, i32 0, i32 0
  %5 = load i64, ptr %4, align 8
  ret i64 %5
}

; Function Attrs: mustprogress nounwind uwtable
define linkonce_odr hidden noundef ptr @_ZNK4llvm14StringMapEntryIPN5clang14IdentifierInfoEE10getKeyDataEv(ptr noundef nonnull align 8 dereferenceable(16) %0) #0 comdat align 2 {
  %2 = alloca ptr, align 8
  store ptr %0, ptr %2, align 8
  %3 = load ptr, ptr %2, align 8
  %4 = getelementptr inbounds %"class.llvm::StringMapEntry", ptr %3, i64 1
  ret ptr %4
}

; Function Attrs: mustprogress nounwind uwtable
define linkonce_odr hidden noundef ptr @_ZNK5clang15DeclarationName20castAsIdentifierInfoEv(ptr noundef nonnull align 8 dereferenceable(8) %0) #0 comdat align 2 {
  %2 = alloca ptr, align 8
  store ptr %0, ptr %2, align 8
  %3 = load ptr, ptr %2, align 8
  %4 = call noundef ptr @_ZNK5clang15DeclarationName6getPtrEv(ptr noundef nonnull align 8 dereferenceable(8) %3)
  ret ptr %4
}

; Function Attrs: mustprogress nounwind uwtable
define linkonce_odr hidden noundef zeroext i1 @_ZNK5clang15DeclarationName12isIdentifierEv(ptr noundef nonnull align 8 dereferenceable(8) %0) #0 comdat align 2 {
  %2 = alloca ptr, align 8
  store ptr %0, ptr %2, align 8
  %3 = load ptr, ptr %2, align 8
  %4 = call noundef i32 @_ZNK5clang15DeclarationName17getStoredNameKindEv(ptr noundef nonnull align 8 dereferenceable(8) %3)
  %5 = icmp eq i32 %4, 0
  ret i1 %5
}

; Function Attrs: mustprogress nounwind uwtable
define linkonce_odr hidden void @_ZN4llvm9StringRefC2EPKcm(ptr noundef nonnull align 8 dereferenceable(16) %0, ptr noundef %1, i64 noundef %2) unnamed_addr #0 comdat align 2 {
  %4 = alloca ptr, align 8
  %5 = alloca ptr, align 8
  %6 = alloca i64, align 8
  store ptr %0, ptr %4, align 8
  store ptr %1, ptr %5, align 8
  store i64 %2, ptr %6, align 8
  %7 = load ptr, ptr %4, align 8
  %8 = getelementptr inbounds nuw %"class.llvm::StringRef", ptr %7, i32 0, i32 0
  %9 = load ptr, ptr %5, align 8
  store ptr %9, ptr %8, align 8
  %10 = getelementptr inbounds nuw %"class.llvm::StringRef", ptr %7, i32 0, i32 1
  %11 = load i64, ptr %6, align 8
  store i64 %11, ptr %10, align 8
  ret void
}

; Function Attrs: mustprogress nounwind uwtable
define linkonce_odr hidden noundef i32 @_ZNK5clang14IdentifierInfo9getLengthEv(ptr noundef nonnull align 8 dereferenceable(24) %0) #0 comdat align 2 {
  %2 = alloca ptr, align 8
  store ptr %0, ptr %2, align 8
  %3 = load ptr, ptr %2, align 8
  %4 = getelementptr inbounds nuw %"class.clang::IdentifierInfo", ptr %3, i32 0, i32 2
  %5 = load ptr, ptr %4, align 8
  %6 = call noundef i64 @_ZNK4llvm18StringMapEntryBase12getKeyLengthEv(ptr noundef nonnull align 8 dereferenceable(8) %5)
  %7 = trunc i64 %6 to i32
  ret i32 %7
}

; Function Attrs: mustprogress nounwind uwtable
define linkonce_odr hidden noundef ptr @_ZNK5clang14IdentifierInfo12getNameStartEv(ptr noundef nonnull align 8 dereferenceable(24) %0) #0 comdat align 2 {
  %2 = alloca ptr, align 8
  store ptr %0, ptr %2, align 8
  %3 = load ptr, ptr %2, align 8
  %4 = getelementptr inbounds nuw %"class.clang::IdentifierInfo", ptr %3, i32 0, i32 2
  %5 = load ptr, ptr %4, align 8
  %6 = call noundef ptr @_ZNK4llvm14StringMapEntryIPN5clang14IdentifierInfoEE10getKeyDataEv(ptr noundef nonnull align 8 dereferenceable(16) %5)
  ret ptr %6
}

; Function Attrs: mustprogress nounwind uwtable
define linkonce_odr hidden noundef ptr @_ZNK5clang15DeclarationName19getAsIdentifierInfoEv(ptr noundef nonnull align 8 dereferenceable(8) %0) #0 comdat align 2 {
  %2 = alloca ptr, align 8
  %3 = alloca ptr, align 8
  store ptr %0, ptr %3, align 8
  %4 = load ptr, ptr %3, align 8
  %5 = call noundef zeroext i1 @_ZNK5clang15DeclarationName12isIdentifierEv(ptr noundef nonnull align 8 dereferenceable(8) %4)
  br i1 %5, label %6, label %8

6:                                                ; preds = %1
  %7 = call noundef ptr @_ZNK5clang15DeclarationName20castAsIdentifierInfoEv(ptr noundef nonnull align 8 dereferenceable(8) %4)
  store ptr %7, ptr %2, align 8
  br label %9

8:                                                ; preds = %1
  store ptr null, ptr %2, align 8
  br label %9

9:                                                ; preds = %8, %6
  %10 = load ptr, ptr %2, align 8
  ret ptr %10
}

; Function Attrs: mustprogress nounwind uwtable
define linkonce_odr hidden noundef i64 @_ZNSt11char_traitsIcE6lengthEPKc(ptr noundef %0) #0 comdat align 2 {
  %2 = alloca ptr, align 8
  store ptr %0, ptr %2, align 8
  %3 = load ptr, ptr %2, align 8
  %4 = call i64 @strlen(ptr noundef %3) #11
  ret i64 %4
}

; Function Attrs: mustprogress nounwind uwtable
define linkonce_odr hidden noundef ptr @_ZNK4llvm9StringRef4dataEv(ptr noundef nonnull align 8 dereferenceable(16) %0) #0 comdat align 2 {
  %2 = alloca ptr, align 8
  store ptr %0, ptr %2, align 8
  %3 = load ptr, ptr %2, align 8
  %4 = getelementptr inbounds nuw %"class.llvm::StringRef", ptr %3, i32 0, i32 0
  %5 = load ptr, ptr %4, align 8
  ret ptr %5
}

; Function Attrs: mustprogress nounwind uwtable
define linkonce_odr hidden noundef i64 @_ZNK4llvm9StringRef4sizeEv(ptr noundef nonnull align 8 dereferenceable(16) %0) #0 comdat align 2 {
  %2 = alloca ptr, align 8
  store ptr %0, ptr %2, align 8
  %3 = load ptr, ptr %2, align 8
  %4 = getelementptr inbounds nuw %"class.llvm::StringRef", ptr %3, i32 0, i32 1
  %5 = load i64, ptr %4, align 8
  ret i64 %5
}

; Function Attrs: mustprogress nounwind uwtable
define linkonce_odr hidden { ptr, i64 } @_ZNK5clang14IdentifierInfo7getNameEv(ptr noundef nonnull align 8 dereferenceable(24) %0) #0 comdat align 2 {
  %2 = alloca %"class.llvm::StringRef", align 8
  %3 = alloca ptr, align 8
  store ptr %0, ptr %3, align 8
  %4 = load ptr, ptr %3, align 8
  %5 = call noundef ptr @_ZNK5clang14IdentifierInfo12getNameStartEv(ptr noundef nonnull align 8 dereferenceable(24) %4)
  %6 = call noundef i32 @_ZNK5clang14IdentifierInfo9getLengthEv(ptr noundef nonnull align 8 dereferenceable(24) %4)
  %7 = zext i32 %6 to i64
  call void @_ZN4llvm9StringRefC2EPKcm(ptr noundef nonnull align 8 dereferenceable(16) %2, ptr noundef %5, i64 noundef %7)
  %8 = load { ptr, i64 }, ptr %2, align 8
  ret { ptr, i64 } %8
}

; Function Attrs: mustprogress nounwind uwtable
define linkonce_odr hidden noundef ptr @_ZNK5clang9NamedDecl13getIdentifierEv(ptr noundef nonnull align 8 dereferenceable(48) %0) #0 comdat align 2 {
  %2 = alloca ptr, align 8
  store ptr %0, ptr %2, align 8
  %3 = load ptr, ptr %2, align 8
  %4 = getelementptr inbounds nuw %"class.clang::NamedDecl", ptr %3, i32 0, i32 1
  %5 = call noundef ptr @_ZNK5clang15DeclarationName19getAsIdentifierInfoEv(ptr noundef nonnull align 8 dereferenceable(8) %4)
  ret ptr %5
}

; Function Attrs: mustprogress nounwind uwtable
define linkonce_odr hidden void @_ZN4llvm9StringRefC2EPKc(ptr noundef nonnull align 8 dereferenceable(16) %0, ptr noundef %1) unnamed_addr #0 comdat align 2 {
  %3 = alloca ptr, align 8
  %4 = alloca ptr, align 8
  store ptr %0, ptr %3, align 8
  store ptr %1, ptr %4, align 8
  %5 = load ptr, ptr %3, align 8
  %6 = getelementptr inbounds nuw %"class.llvm::StringRef", ptr %5, i32 0, i32 0
  %7 = load ptr, ptr %4, align 8
  store ptr %7, ptr %6, align 8
  %8 = getelementptr inbounds nuw %"class.llvm::StringRef", ptr %5, i32 0, i32 1
  %9 = load ptr, ptr %4, align 8
  %10 = icmp ne ptr %9, null
  br i1 %10, label %11, label %14

11:                                               ; preds = %2
  %12 = load ptr, ptr %4, align 8
  %13 = call noundef i64 @_ZNSt11char_traitsIcE6lengthEPKc(ptr noundef %12)
  br label %15

14:                                               ; preds = %2
  br label %15

15:                                               ; preds = %14, %11
  %16 = phi i64 [ %13, %11 ], [ 0, %14 ]
  store i64 %16, ptr %8, align 8
  ret void
}

; Function Attrs: mustprogress nounwind uwtable
define linkonce_odr hidden noundef nonnull align 8 dereferenceable(48) ptr @_ZN4llvm11raw_ostreamlsENS_9StringRefE(ptr noundef nonnull align 8 dereferenceable(48) %0, ptr %1, i64 %2) #0 comdat align 2 {
  %4 = alloca ptr, align 8
  %5 = alloca %"class.llvm::StringRef", align 8
  %6 = alloca ptr, align 8
  %7 = alloca i64, align 8
  %8 = getelementptr inbounds nuw { ptr, i64 }, ptr %5, i32 0, i32 0
  store ptr %1, ptr %8, align 8
  %9 = getelementptr inbounds nuw { ptr, i64 }, ptr %5, i32 0, i32 1
  store i64 %2, ptr %9, align 8
  store ptr %0, ptr %6, align 8
  %10 = load ptr, ptr %6, align 8
  %11 = call noundef i64 @_ZNK4llvm9StringRef4sizeEv(ptr noundef nonnull align 8 dereferenceable(16) %5)
  store i64 %11, ptr %7, align 8
  %12 = load i64, ptr %7, align 8
  %13 = getelementptr inbounds nuw %"class.llvm::raw_ostream", ptr %10, i32 0, i32 3
  %14 = load ptr, ptr %13, align 8
  %15 = getelementptr inbounds nuw %"class.llvm::raw_ostream", ptr %10, i32 0, i32 4
  %16 = load ptr, ptr %15, align 8
  %17 = ptrtoint ptr %14 to i64
  %18 = ptrtoint ptr %16 to i64
  %19 = sub i64 %17, %18
  %20 = icmp ugt i64 %12, %19
  br i1 %20, label %21, label %25

21:                                               ; preds = %3
  %22 = call noundef ptr @_ZNK4llvm9StringRef4dataEv(ptr noundef nonnull align 8 dereferenceable(16) %5)
  %23 = load i64, ptr %7, align 8
  %24 = call noundef nonnull align 8 dereferenceable(48) ptr @_ZN4llvm11raw_ostream5writeEPKcm(ptr noundef nonnull align 8 dereferenceable(48) %10, ptr noundef %22, i64 noundef %23)
  store ptr %24, ptr %4, align 8
  br label %38

25:                                               ; preds = %3
  %26 = load i64, ptr %7, align 8
  %27 = icmp ne i64 %26, 0
  br i1 %27, label %28, label %37

28:                                               ; preds = %25
  %29 = getelementptr inbounds nuw %"class.llvm::raw_ostream", ptr %10, i32 0, i32 4
  %30 = load ptr, ptr %29, align 8
  %31 = call noundef ptr @_ZNK4llvm9StringRef4dataEv(ptr noundef nonnull align 8 dereferenceable(16) %5)
  %32 = load i64, ptr %7, align 8
  call void @llvm.memcpy.p0.p0.i64(ptr align 1 %30, ptr align 1 %31, i64 %32, i1 false)
  %33 = load i64, ptr %7, align 8
  %34 = getelementptr inbounds nuw %"class.llvm::raw_ostream", ptr %10, i32 0, i32 4
  %35 = load ptr, ptr %34, align 8
  %36 = getelementptr inbounds i8, ptr %35, i64 %33
  store ptr %36, ptr %34, align 8
  br label %37

37:                                               ; preds = %28, %25
  store ptr %10, ptr %4, align 8
  br label %38

38:                                               ; preds = %37, %21
  %39 = load ptr, ptr %4, align 8
  ret ptr %39
}

; Function Attrs: mustprogress nounwind uwtable
define linkonce_odr hidden { ptr, i64 } @_ZNK5clang9NamedDecl7getNameEv(ptr noundef nonnull align 8 dereferenceable(48) %0) #0 comdat align 2 {
  %2 = alloca %"class.llvm::StringRef", align 8
  %3 = alloca ptr, align 8
  store ptr %0, ptr %3, align 8
  %4 = load ptr, ptr %3, align 8
  %5 = call noundef ptr @_ZNK5clang9NamedDecl13getIdentifierEv(ptr noundef nonnull align 8 dereferenceable(48) %4)
  %6 = icmp ne ptr %5, null
  br i1 %6, label %7, label %14

7:                                                ; preds = %1
  %8 = call noundef ptr @_ZNK5clang9NamedDecl13getIdentifierEv(ptr noundef nonnull align 8 dereferenceable(48) %4)
  %9 = call { ptr, i64 } @_ZNK5clang14IdentifierInfo7getNameEv(ptr noundef nonnull align 8 dereferenceable(24) %8)
  %10 = getelementptr inbounds nuw { ptr, i64 }, ptr %2, i32 0, i32 0
  %11 = extractvalue { ptr, i64 } %9, 0
  store ptr %11, ptr %10, align 8
  %12 = getelementptr inbounds nuw { ptr, i64 }, ptr %2, i32 0, i32 1
  %13 = extractvalue { ptr, i64 } %9, 1
  store i64 %13, ptr %12, align 8
  br label %15

14:                                               ; preds = %1
  call void @_ZN4llvm9StringRefC2EPKc(ptr noundef nonnull align 8 dereferenceable(16) %2, ptr noundef @.str.60)
  br label %15

15:                                               ; preds = %14, %7
  %16 = load { ptr, i64 }, ptr %2, align 8
  ret { ptr, i64 } %16
}

; Function Attrs: mustprogress nounwind uwtable
define linkonce_odr hidden noundef nonnull align 8 dereferenceable(48) ptr @_ZN4llvm11raw_ostreamlsEPKc(ptr noundef nonnull align 8 dereferenceable(48) %0, ptr noundef %1) #0 comdat align 2 {
  %3 = alloca ptr, align 8
  %4 = alloca ptr, align 8
  %5 = alloca %"class.llvm::StringRef", align 8
  store ptr %0, ptr %3, align 8
  store ptr %1, ptr %4, align 8
  %6 = load ptr, ptr %3, align 8
  %7 = load ptr, ptr %4, align 8
  call void @_ZN4llvm9StringRefC2EPKc(ptr noundef nonnull align 8 dereferenceable(16) %5, ptr noundef %7)
  %8 = getelementptr inbounds nuw { ptr, i64 }, ptr %5, i32 0, i32 0
  %9 = load ptr, ptr %8, align 8
  %10 = getelementptr inbounds nuw { ptr, i64 }, ptr %5, i32 0, i32 1
  %11 = load i64, ptr %10, align 8
  %12 = call noundef nonnull align 8 dereferenceable(48) ptr @_ZN4llvm11raw_ostreamlsENS_9StringRefE(ptr noundef nonnull align 8 dereferenceable(48) %6, ptr %9, i64 %11)
  ret ptr %12
}

; Function Attrs: mustprogress nounwind uwtable
define dso_local void @_ZNK5clang4ento11FieldRegion17printPrettyAsExprERN4llvm11raw_ostreamE(ptr noundef nonnull align 8 dereferenceable(64) %0, ptr noundef nonnull align 8 dereferenceable(48) %1) unnamed_addr #0 align 2 {
  %3 = alloca ptr, align 8
  %4 = alloca ptr, align 8
  %5 = alloca %"class.llvm::StringRef", align 8
  store ptr %0, ptr %3, align 8
  store ptr %1, ptr %4, align 8
  %6 = load ptr, ptr %3, align 8
  %7 = getelementptr inbounds nuw %"class.clang::ento::SubRegion", ptr %6, i32 0, i32 1
  %8 = load ptr, ptr %7, align 8
  %9 = load ptr, ptr %4, align 8
  %10 = load ptr, ptr %8, align 8
  %11 = getelementptr inbounds ptr, ptr %10, i64 9
  %12 = load ptr, ptr %11, align 8
  call void %12(ptr noundef nonnull align 8 dereferenceable(48) %8, ptr noundef nonnull align 8 dereferenceable(48) %9)
  %13 = load ptr, ptr %4, align 8
  %14 = call noundef nonnull align 8 dereferenceable(48) ptr @_ZN4llvm11raw_ostreamlsEPKc(ptr noundef nonnull align 8 dereferenceable(48) %13, ptr noundef @.str.20)
  %15 = load ptr, ptr %6, align 8
  %16 = getelementptr inbounds ptr, ptr %15, i64 14
  %17 = load ptr, ptr %16, align 8
  %18 = call noundef nonnull ptr %17(ptr noundef nonnull align 8 dereferenceable(64) %6)
  %19 = call { ptr, i64 } @_ZNK5clang9NamedDecl7getNameEv(ptr noundef nonnull align 8 dereferenceable(48) %18)
  %20 = getelementptr inbounds nuw { ptr, i64 }, ptr %5, i32 0, i32 0
  %21 = extractvalue { ptr, i64 } %19, 0
  store ptr %21, ptr %20, align 8
  %22 = getelementptr inbounds nuw { ptr, i64 }, ptr %5, i32 0, i32 1
  %23 = extractvalue { ptr, i64 } %19, 1
  store i64 %23, ptr %22, align 8
  %24 = getelementptr inbounds nuw { ptr, i64 }, ptr %5, i32 0, i32 0
  %25 = load ptr, ptr %24, align 8
  %26 = getelementptr inbounds nuw { ptr, i64 }, ptr %5, i32 0, i32 1
  %27 = load i64, ptr %26, align 8
  %28 = call noundef nonnull align 8 dereferenceable(48) ptr @_ZN4llvm11raw_ostreamlsENS_9StringRefE(ptr noundef nonnull align 8 dereferenceable(48) %14, ptr %25, i64 %27)
  ret void
}