; Function Attrs: mustprogress nounwind uwtable
define dso_local void @_ZNK5clang4ento11FieldRegion17printPrettyAsExprERN4llvm11raw_ostreamE(ptr noundef nonnull align 8 dereferenceable(64) %0, ptr noundef nonnull align 8 dereferenceable(48) %1) unnamed_addr #3 align 2 {
  %3 = getelementptr inbounds nuw i8, ptr %0, i64 48
  %4 = load ptr, ptr %3, align 8
  %5 = load ptr, ptr %4, align 8
  %6 = getelementptr inbounds i8, ptr %5, i64 72
  %7 = load ptr, ptr %6, align 8
  tail call void %7(ptr noundef nonnull align 8 dereferenceable(48) %4, ptr noundef nonnull align 8 dereferenceable(48) %1) #20
  %8 = getelementptr inbounds nuw i8, ptr %1, i64 24
  %9 = load ptr, ptr %8, align 8
  %10 = getelementptr inbounds nuw i8, ptr %1, i64 32
  %11 = load ptr, ptr %10, align 8
  %12 = icmp eq ptr %9, %11
  br i1 %12, label %13, label %15

13:                                               ; preds = %2
  %14 = tail call noundef nonnull align 8 dereferenceable(48) ptr @_ZN4llvm11raw_ostream5writeEPKcm(ptr noundef nonnull align 8 dereferenceable(48) %1, ptr noundef nonnull @.str.20, i64 noundef 1) #20
  br label %_ZN4llvm11raw_ostreamlsEPKc.exit

15:                                               ; preds = %2
  store i8 46, ptr %11, align 1
  %16 = load ptr, ptr %10, align 8
  %17 = getelementptr inbounds i8, ptr %16, i64 1
  store ptr %17, ptr %10, align 8
  br label %_ZN4llvm11raw_ostreamlsEPKc.exit

_ZN4llvm11raw_ostreamlsEPKc.exit:                 ; preds = %13, %15
  %.0.i.i = phi ptr [ %14, %13 ], [ %1, %15 ]
  %18 = load ptr, ptr %0, align 8
  %19 = getelementptr inbounds i8, ptr %18, i64 112
  %20 = load ptr, ptr %19, align 8
  %21 = tail call noundef nonnull ptr %20(ptr noundef nonnull align 8 dereferenceable(64) %0) #20
  %22 = getelementptr inbounds nuw i8, ptr %21, i64 40
  %23 = load i64, ptr %22, align 8
  %24 = and i64 %23, 7
  %25 = icmp ne i64 %24, 0
  %26 = and i64 %23, -8
  %.not2.i = icmp eq i64 %26, 0
  %.not.i = or i1 %25, %.not2.i
  br i1 %.not.i, label %_ZN4llvm11raw_ostreamlsENS_9StringRefE.exit, label %_ZNK5clang9NamedDecl7getNameEv.exit

_ZNK5clang9NamedDecl7getNameEv.exit:              ; preds = %_ZN4llvm11raw_ostreamlsEPKc.exit
  %27 = inttoptr i64 %26 to ptr
  %28 = getelementptr inbounds nuw i8, ptr %27, i64 16
  %29 = load ptr, ptr %28, align 8
  %30 = getelementptr inbounds i8, ptr %29, i64 16
  %31 = load i64, ptr %29, align 8
  %32 = and i64 %31, 4294967295
  %33 = getelementptr inbounds nuw i8, ptr %.0.i.i, i64 24
  %34 = load ptr, ptr %33, align 8
  %35 = getelementptr inbounds nuw i8, ptr %.0.i.i, i64 32
  %36 = load ptr, ptr %35, align 8
  %37 = ptrtoint ptr %34 to i64
  %38 = ptrtoint ptr %36 to i64
  %39 = sub i64 %37, %38
  %40 = icmp ugt i64 %32, %39
  br i1 %40, label %41, label %43

41:                                               ; preds = %_ZNK5clang9NamedDecl7getNameEv.exit
  %42 = tail call noundef nonnull align 8 dereferenceable(48) ptr @_ZN4llvm11raw_ostream5writeEPKcm(ptr noundef nonnull align 8 dereferenceable(48) %.0.i.i, ptr noundef nonnull %30, i64 noundef %32) #20
  br label %_ZN4llvm11raw_ostreamlsENS_9StringRefE.exit

43:                                               ; preds = %_ZNK5clang9NamedDecl7getNameEv.exit
  %.not.i3 = icmp eq i64 %32, 0
  br i1 %.not.i3, label %_ZN4llvm11raw_ostreamlsENS_9StringRefE.exit, label %44

44:                                               ; preds = %43
  tail call void @llvm.memcpy.p0.p0.i64(ptr align 1 %36, ptr nonnull align 1 %30, i64 %32, i1 false)
  %45 = load ptr, ptr %35, align 8
  %46 = getelementptr inbounds i8, ptr %45, i64 %32
  store ptr %46, ptr %35, align 8
  br label %_ZN4llvm11raw_ostreamlsENS_9StringRefE.exit

_ZN4llvm11raw_ostreamlsENS_9StringRefE.exit:      ; preds = %_ZN4llvm11raw_ostreamlsEPKc.exit, %41, %43, %44
  ret void
}